target datalayout = "e-m:e-p270:32:32-p271:32:32-p272:64:64-i64:64-i128:128-f80:128-n8:16:32:64-S128"
target triple = "x86_64-pc-linux-gnu"

; Function Attrs: nounwind uwtable
define void @ff_celp_convolve_circ(ptr noundef %0, ptr noundef %1, ptr noundef %2, i32 noundef %3) #0 {
  %5 = alloca ptr, align 8
  %6 = alloca ptr, align 8
  %7 = alloca ptr, align 8
  %8 = alloca i32, align 4
  %9 = alloca i32, align 4
  %10 = alloca i32, align 4
  store ptr %0, ptr %5, align 8, !tbaa !4
  store ptr %1, ptr %6, align 8, !tbaa !4
  store ptr %2, ptr %7, align 8, !tbaa !4
  store i32 %3, ptr %8, align 4, !tbaa !9
  call void @llvm.lifetime.start.p0(i64 4, ptr %9) #5
  call void @llvm.lifetime.start.p0(i64 4, ptr %10) #5
  %11 = load ptr, ptr %5, align 8, !tbaa !4
  %12 = load i32, ptr %8, align 4, !tbaa !9
  %13 = sext i32 %12 to i64
  %14 = mul i64 %13, 2
  call void @llvm.memset.p0.i64(ptr align 2 %11, i8 0, i64 %14, i1 false)
  store i32 0, ptr %9, align 4, !tbaa !9
  br label %15

15:                                               ; preds = %97, %4
  %16 = load i32, ptr %9, align 4, !tbaa !9
  %17 = load i32, ptr %8, align 4, !tbaa !9
  %18 = icmp slt i32 %16, %17
  br i1 %18, label %19, label %100

19:                                               ; preds = %15
  %20 = load ptr, ptr %6, align 8, !tbaa !4
  %21 = load i32, ptr %9, align 4, !tbaa !9
  %22 = sext i32 %21 to i64
  %23 = getelementptr inbounds i16, ptr %20, i64 %22
  %24 = load i16, ptr %23, align 2, !tbaa !11
  %25 = icmp ne i16 %24, 0
  br i1 %25, label %26, label %96

26:                                               ; preds = %19
  store i32 0, ptr %10, align 4, !tbaa !9
  br label %27

27:                                               ; preds = %58, %26
  %28 = load i32, ptr %10, align 4, !tbaa !9
  %29 = load i32, ptr %9, align 4, !tbaa !9
  %30 = icmp slt i32 %28, %29
  br i1 %30, label %31, label %61

31:                                               ; preds = %27
  %32 = load ptr, ptr %6, align 8, !tbaa !4
  %33 = load i32, ptr %9, align 4, !tbaa !9
  %34 = sext i32 %33 to i64
  %35 = getelementptr inbounds i16, ptr %32, i64 %34
  %36 = load i16, ptr %35, align 2, !tbaa !11
  %37 = sext i16 %36 to i32
  %38 = load ptr, ptr %7, align 8, !tbaa !4
  %39 = load i32, ptr %8, align 4, !tbaa !9
  %40 = load i32, ptr %10, align 4, !tbaa !9
  %41 = add nsw i32 %39, %40
  %42 = load i32, ptr %9, align 4, !tbaa !9
  %43 = sub nsw i32 %41, %42
  %44 = sext i32 %43 to i64
  %45 = getelementptr inbounds i16, ptr %38, i64 %44
  %46 = load i16, ptr %45, align 2, !tbaa !11
  %47 = sext i16 %46 to i32
  %48 = mul nsw i32 %37, %47
  %49 = ashr i32 %48, 15
  %50 = load ptr, ptr %5, align 8, !tbaa !4
  %51 = load i32, ptr %10, align 4, !tbaa !9
  %52 = sext i32 %51 to i64
  %53 = getelementptr inbounds i16, ptr %50, i64 %52
  %54 = load i16, ptr %53, align 2, !tbaa !11
  %55 = sext i16 %54 to i32
  %56 = add nsw i32 %55, %49
  %57 = trunc i32 %56 to i16
  store i16 %57, ptr %53, align 2, !tbaa !11
  br label %58

58:                                               ; preds = %31
  %59 = load i32, ptr %10, align 4, !tbaa !9
  %60 = add nsw i32 %59, 1
  store i32 %60, ptr %10, align 4, !tbaa !9
  br label %27, !llvm.loop !13

61:                                               ; preds = %27
  %62 = load i32, ptr %9, align 4, !tbaa !9
  store i32 %62, ptr %10, align 4, !tbaa !9
  br label %63

63:                                               ; preds = %92, %61
  %64 = load i32, ptr %10, align 4, !tbaa !9
  %65 = load i32, ptr %8, align 4, !tbaa !9
  %66 = icmp slt i32 %64, %65
  br i1 %66, label %67, label %95

67:                                               ; preds = %63
  %68 = load ptr, ptr %6, align 8, !tbaa !4
  %69 = load i32, ptr %9, align 4, !tbaa !9
  %70 = sext i32 %69 to i64
  %71 = getelementptr inbounds i16, ptr %68, i64 %70
  %72 = load i16, ptr %71, align 2, !tbaa !11
  %73 = sext i16 %72 to i32
  %74 = load ptr, ptr %7, align 8, !tbaa !4
  %75 = load i32, ptr %10, align 4, !tbaa !9
  %76 = load i32, ptr %9, align 4, !tbaa !9
  %77 = sub nsw i32 %75, %76
  %78 = sext i32 %77 to i64
  %79 = getelementptr inbounds i16, ptr %74, i64 %78
  %80 = load i16, ptr %79, align 2, !tbaa !11
  %81 = sext i16 %80 to i32
  %82 = mul nsw i32 %73, %81
  %83 = ashr i32 %82, 15
  %84 = load ptr, ptr %5, align 8, !tbaa !4
  %85 = load i32, ptr %10, align 4, !tbaa !9
  %86 = sext i32 %85 to i64
  %87 = getelementptr inbounds i16, ptr %84, i64 %86
  %88 = load i16, ptr %87, align 2, !tbaa !11
  %89 = sext i16 %88 to i32
  %90 = add nsw i32 %89, %83
  %91 = trunc i32 %90 to i16
  store i16 %91, ptr %87, align 2, !tbaa !11
  br label %92

92:                                               ; preds = %67
  %93 = load i32, ptr %10, align 4, !tbaa !9
  %94 = add nsw i32 %93, 1
  store i32 %94, ptr %10, align 4, !tbaa !9
  br label %63, !llvm.loop !15

95:                                               ; preds = %63
  br label %96

96:                                               ; preds = %95, %19
  br label %97

97:                                               ; preds = %96
  %98 = load i32, ptr %9, align 4, !tbaa !9
  %99 = add nsw i32 %98, 1
  store i32 %99, ptr %9, align 4, !tbaa !9
  br label %15, !llvm.loop !16

100:                                              ; preds = %15
  call void @llvm.lifetime.end.p0(i64 4, ptr %10) #5
  call void @llvm.lifetime.end.p0(i64 4, ptr %9) #5
  ret void
}