; Function Attrs: nofree norecurse nosync nounwind memory(argmem: readwrite) uwtable
define void @ff_celp_convolve_circ(ptr noundef captures(none) %0, ptr noundef readonly captures(none) %1, ptr noundef readonly captures(none) %2, i32 noundef %3) local_unnamed_addr #0 {
  %5 = sext i32 %3 to i64
  %6 = shl nsw i64 %5, 1
  tail call void @llvm.memset.p0.i64(ptr align 2 %0, i8 0, i64 %6, i1 false)
  %7 = icmp sgt i32 %3, 0
  br i1 %7, label %.lr.ph36.preheader, label %._crit_edge

.lr.ph36.preheader:                               ; preds = %4
  %wide.trip.count47 = zext nneg i32 %3 to i64
  br label %.lr.ph36

.lr.ph36:                                         ; preds = %.lr.ph36.preheader, %.loopexit
  %indvars.iv39 = phi i64 [ 0, %.lr.ph36.preheader ], [ %indvars.iv.next40, %.loopexit ]
  %8 = getelementptr inbounds nuw i16, ptr %1, i64 %indvars.iv39
  %9 = load i16, ptr %8, align 2, !tbaa !4
  %.not = icmp eq i16 %9, 0
  br i1 %.not, label %.loopexit, label %.preheader30

.preheader30:                                     ; preds = %.lr.ph36
  %.not37 = icmp eq i64 %indvars.iv39, 0
  br i1 %.not37, label %.lr.ph33.preheader, label %.lr.ph

.lr.ph:                                           ; preds = %.preheader30
  %10 = trunc nuw nsw i64 %indvars.iv39 to i32
  %11 = sub i32 %3, %10
  br label %12

12:                                               ; preds = %.lr.ph, %12
  %indvars.iv = phi i64 [ 0, %.lr.ph ], [ %indvars.iv.next, %12 ]
  %13 = load i16, ptr %8, align 2, !tbaa !4
  %14 = sext i16 %13 to i32
  %15 = trunc nuw nsw i64 %indvars.iv to i32
  %16 = add i32 %11, %15
  %17 = sext i32 %16 to i64
  %18 = getelementptr inbounds i16, ptr %2, i64 %17
  %19 = load i16, ptr %18, align 2, !tbaa !4
  %20 = sext i16 %19 to i32
  %21 = mul nsw i32 %20, %14
  %22 = lshr i32 %21, 15
  %23 = getelementptr inbounds nuw i16, ptr %0, i64 %indvars.iv
  %24 = load i16, ptr %23, align 2, !tbaa !4
  %25 = trunc i32 %22 to i16
  %26 = add i16 %24, %25
  store i16 %26, ptr %23, align 2, !tbaa !4
  %indvars.iv.next = add nuw nsw i64 %indvars.iv, 1
  %exitcond.not = icmp eq i64 %indvars.iv.next, %indvars.iv39
  br i1 %exitcond.not, label %.lr.ph33.preheader, label %12, !llvm.loop !8

.lr.ph33.preheader:                               ; preds = %12, %.preheader30
  br label %.lr.ph33

.lr.ph33:                                         ; preds = %.lr.ph33.preheader, %.lr.ph33
  %indvars.iv41 = phi i64 [ %indvars.iv.next42, %.lr.ph33 ], [ %indvars.iv39, %.lr.ph33.preheader ]
  %27 = load i16, ptr %8, align 2, !tbaa !4
  %28 = sext i16 %27 to i32
  %29 = sub nuw nsw i64 %indvars.iv41, %indvars.iv39
  %30 = getelementptr inbounds nuw i16, ptr %2, i64 %29
  %31 = load i16, ptr %30, align 2, !tbaa !4
  %32 = sext i16 %31 to i32
  %33 = mul nsw i32 %32, %28
  %34 = lshr i32 %33, 15
  %35 = getelementptr inbounds nuw i16, ptr %0, i64 %indvars.iv41
  %36 = load i16, ptr %35, align 2, !tbaa !4
  %37 = trunc i32 %34 to i16
  %38 = add i16 %36, %37
  store i16 %38, ptr %35, align 2, !tbaa !4
  %indvars.iv.next42 = add nuw nsw i64 %indvars.iv41, 1
  %exitcond45.not = icmp eq i64 %indvars.iv.next42, %wide.trip.count47
  br i1 %exitcond45.not, label %.loopexit, label %.lr.ph33, !llvm.loop !10

.loopexit:                                        ; preds = %.lr.ph33, %.lr.ph36
  %indvars.iv.next40 = add nuw nsw i64 %indvars.iv39, 1
  %exitcond48.not = icmp eq i64 %indvars.iv.next40, %wide.trip.count47
  br i1 %exitcond48.not, label %._crit_edge, label %.lr.ph36, !llvm.loop !11

._crit_edge:                                      ; preds = %.loopexit, %4
  ret void
}